; Function Attrs: mustprogress uwtable
define dso_local void @_ZN24btMultiBodyDynamicsWorld18saveKinematicStateEf(ptr noundef nonnull align 8 dereferenceable(848) %0, float noundef %1) unnamed_addr #0 align 2 {
  tail call void @_ZN23btDiscreteDynamicsWorld18saveKinematicStateEf(ptr noundef nonnull align 8 dereferenceable(508) %0, float noundef %1)
  %3 = getelementptr inbounds nuw i8, ptr %0, i64 516
  %4 = load i32, ptr %3, align 4, !tbaa !4
  %5 = icmp sgt i32 %4, 0
  br i1 %5, label %.lr.ph, label %._crit_edge

.lr.ph:                                           ; preds = %2
  %6 = getelementptr inbounds nuw i8, ptr %0, i64 528
  br label %7

._crit_edge:                                      ; preds = %13, %2
  ret void

7:                                                ; preds = %.lr.ph, %13
  %indvars.iv = phi i64 [ 0, %.lr.ph ], [ %indvars.iv.next, %13 ]
  %8 = load ptr, ptr %6, align 8, !tbaa !14
  %9 = getelementptr inbounds nuw ptr, ptr %8, i64 %indvars.iv
  %10 = load ptr, ptr %9, align 8, !tbaa !15
  %11 = tail call noundef zeroext i1 @_ZNK11btMultiBody15isBaseKinematicEv(ptr noundef nonnull align 8 dereferenceable(640) %10)
  br i1 %11, label %12, label %13

12:                                               ; preds = %7
  tail call void @_ZN11btMultiBody18saveKinematicStateEf(ptr noundef nonnull align 8 dereferenceable(640) %10, float noundef %1)
  br label %13

13:                                               ; preds = %12, %7
  %indvars.iv.next = add nuw nsw i64 %indvars.iv, 1
  %14 = load i32, ptr %3, align 4, !tbaa !4
  %15 = sext i32 %14 to i64
  %16 = icmp slt i64 %indvars.iv.next, %15
  br i1 %16, label %7, label %._crit_edge, !llvm.loop !254
}